; Function Attrs: nounwind uwtable
define ptr @lv_textarea_get_text(ptr noundef readonly captures(address_is_null) %0) local_unnamed_addr #0 {
  %.not = icmp eq ptr %0, null
  br i1 %.not, label %.preheader, label %2

.preheader:                                       ; preds = %1, %.preheader
  br label %.preheader

2:                                                ; preds = %1
  %3 = getelementptr inbounds nuw i8, ptr %0, i64 152
  %4 = load i8, ptr %3, align 8
  %5 = and i8 %4, 4
  %6 = icmp eq i8 %5, 0
  br i1 %6, label %7, label %11

7:                                                ; preds = %2
  %8 = getelementptr inbounds nuw i8, ptr %0, i64 64
  %9 = load ptr, ptr %8, align 8, !tbaa !22
  %10 = tail call ptr @lv_label_get_text(ptr noundef %9) #10
  br label %14

11:                                               ; preds = %2
  %12 = getelementptr inbounds nuw i8, ptr %0, i64 80
  %13 = load ptr, ptr %12, align 8, !tbaa !23
  br label %14

14:                                               ; preds = %11, %7
  %.0 = phi ptr [ %10, %7 ], [ %13, %11 ]
  ret ptr %.0
}